(dp0
S'RAPID'
p1
S'RPDS'
p2
sS'HILLS'
p3
S'HLS'
p4
sS'SIX'
p5
I6
sS'THREE'
p6
I3
sS'STREET'
p7
S'ST'
p8
sS'CRESCENT'
p9
S'CRES'
p10
sS'JUNCTION'
p11
S'JCT'
p12
sS'FORKS'
p13
S'FRKS'
p14
sS'ONE'
p15
I1
sS'BEACH'
p16
S'BCH'
p17
sS'GARDENS'
p18
S'GDNS'
p19
sS'SOUTH'
p20
S'S'
p21
sS'MEADOW'
p22
S'MDWS'
p23
sS'STREAM'
p24
S'STRM'
p25
sS'BOTTOM'
p26
S'BTM'
p27
sS'SOUTHEAST'
p28
S'SE'
p29
sS'ROOM'
p30
S'RM'
p31
sS'SUMMIT'
p32
S'SMT'
p33
sS'BRANCH'
p34
S'BR'
p35
sS'DEPARTMENT'
p36
S'DEPT'
p37
sS'EIGHT'
p38
I8
sS'VALLEY'
p39
S'VLY'
p40
sS'ROAD'
p41
S'RD'
p42
sS'APARTMENT'
p43
S'APT'
p44
sS'FLOOR'
p45
S'FL'
p46
sS'GROVE'
p47
S'GRV'
p48
sS'COVE'
p49
S'CV'
p50
sS'PO BOX'
p51
S'P.O.BOX'
p52
sS'BASEMENT'
p53
S'BSMT'
p54
sS'ISLANDS'
p55
S'ISS'
p56
sS'RIVER'
p57
S'RIV'
p58
sS'SOUTHWEST'
p59
S'SW'
p60
sS'HARBOR'
p61
S'HBR'
p62
sS'LAKE'
p63
S'LK'
p64
sS'LANDING'
p65
S'LNDG'
p66
sS'PINES'
p67
S'PNES'
p68
sS'RADIAL'
p69
S'RADL'
p70
sS'CIRCLE'
p71
S'CIR'
p72
sS'EXPRESSWAY'
p73
S'EXPY'
p74
sS'CLIFF'
p75
S'CLFS'
p76
sS'BURG'
p77
S'BG'
p78
sS'NORTHEAST'
p79
S'NE'
p80
sS'GARDEN'
p81
S'GDNS'
p82
sS'HEIGHTS'
p83
S'HTS'
p84
sS'LIGHT'
p85
S'LGT'
p86
sS'P. O. BOX'
p87
g52
sS'FREEWAY'
p88
S'FWY'
p89
sS'SHORE'
p90
S'SHR'
p91
sS'SQUARE'
p92
S'SQ'
p93
sS'SUITE'
p94
S'STE'
p95
sS'AVENUE'
p96
S'AVE'
p97
sS'MEADOWS'
p98
S'MDWS'
p99
sS'INLET'
p100
S'INLT'
p101
sS'MOUNTAIN'
p102
S'MTN'
p103
sS'CENTER'
p104
S'CTR'
p105
sS'TRAIL'
p106
S'TRL'
p107
sS'FIELDS'
p108
S'FLDS'
p109
sS'SPACE'
p110
S'SPC'
p111
sS'WELLS'
p112
S'WLS'
p113
sS'FALLS'
p114
S'FLS'
p115
sS'PLAINS'
p116
S'PLNS'
p117
sS'TEN'
p118
I10
sS'NINE'
p119
I9
sS'HILL'
p120
S'HL'
p121
sS'BYPASS'
p122
S'BYP'
p123
sS'VILLAGE'
p124
S'VLG'
p125
sS'SPRINGS'
p126
S'SPGS'
p127
sS'FLAT'
p128
S'FLT'
p129
sS'LOAF'
p130
S'LF'
p131
sS'BOULEVARD'
p132
S'BLVD'
p133
sS'DIVIDE'
p134
S'DV'
p135
sS'CLUB'
p136
S'CLB'
p137
sS'SHOALS'
p138
S'SHLS'
p139
sS'PLAZA'
p140
S'PLZ'
p141
sS'COURSE'
p142
S'CRSE'
p143
sS'PLACE'
p144
S'PL'
p145
sS'LODGE'
p146
S'LDG'
p147
sS'FERRY'
p148
S'FRY'
p149
sS'FORD'
p150
S'FRD'
p151
sS'P. O. DRAWER'
p152
S'P.O.DRAWER'
p153
sS'HIGHWAY'
p154
S'HWY'
p155
sS'GLEN'
p156
S'GLN'
p157
sS'NECK'
p158
S'NCK'
p159
sS'TRACE'
p160
S'TRCE'
p161
sS'BAYOU'
p162
S'BYU'
p163
sS'TRACK'
p164
S'TRAK'
p165
sS'VIADUCT'
p166
S'VIA'
p167
sS'P O BOX'
p168
g52
sS'SHOAL'
p169
S'SHL'
p170
sS'CROSSING'
p171
S'XING'
p172
sS'FIVE'
p173
I5
sS'VIEW'
p174
S'VW'
p175
sS'HAVEN'
p176
S'HVN'
p177
sS'COURT'
p178
S'CT'
p179
sS'OFFICE'
p180
S'OFC'
p181
sS'SPRING'
p182
S'SPG'
p183
sS'MISSION'
p184
S'MSN'
p185
sS'STATION'
p186
S'STA'
p187
sS'BEND'
p188
S'BND'
p189
sS'COURTS'
p190
S'CTS'
p191
sS'CAPE'
p192
S'CPE'
p193
sS'FORGE'
p194
S'FRG'
p195
sS'CORNER'
p196
S'COR'
p197
sS'STRAVENUE'
p198
S'STRA'
p199
sS'PENTHOUSE'
p200
S'PH'
p201
sS'LANE'
p202
S'LN'
p203
sS'PO DRAWER'
p204
g153
sS'MANOR'
p205
S'MNR'
p206
sS'POINT'
p207
S'PT'
p208
sS'TUNNEL'
p209
S'TUNL'
p210
sS'LAKES'
p211
S'LKS'
p212
sS'CAUSEWAY'
p213
S'CSWY'
p214
sS'TRAILER'
p215
S'TRLR'
p216
sS'EAST'
p217
S'E'
p218
sS'TERRACE'
p219
S'TER'
p220
sS'VISTA'
p221
S'VIS'
p222
sS'HANGER'
p223
S'HNGR'
p224
sS'RIDGE'
p225
S'RDG'
p226
sS'ESTATE'
p227
S'EST'
p228
sS'CORNERS'
p229
S'CORS'
p230
sS'MOUNT'
p231
S'MT'
p232
sS'MILLS'
p233
S'MLS'
p234
sS'TWO'
p235
I2
sS'FRONT'
p236
S'FRNT'
p237
sS'WAY'
p238
S'WAY'
p239
sS'P O DRAWER'
p240
g153
sS'UPPER'
p241
S'UPPR'
p242
sS'CREEK'
p243
S'CRK'
p244
sS'ISLAND'
p245
S'IS'
p246
sS'TRAFFICWAY'
p247
S'TRFY'
p248
sS'LOCKS'
p249
S'LCKS'
p250
sS'KEY'
p251
S'KY'
p252
sS'TURNPIKE'
p253
S'TPKE'
p254
sS'DALE'
p255
S'DL'
p256
sS'BRIDGE'
p257
S'BRG'
p258
sS'LOWER'
p259
S'LOWR'
p260
sS'EXTENSION'
p261
S'EXT'
p262
sS'DRIVE'
p263
S'DR'
p264
sS'GREEN'
p265
S'GRN'
p266
sS'PINE'
p267
S'PNES'
p268
sS'PARKWAY'
p269
S'PKWY'
p270
sS'PLAIN'
p271
S'PLN'
p272
sS'VILLE'
p273
S'VL'
p274
sS'KNOLLS'
p275
S'KNLS'
p276
sS'NORTH'
p277
S'N'
p278
sS'ORCHARD'
p279
S'ORCH'
p280
sS'ARCADE'
p281
S'ARC'
p282
sS'DAM'
p283
S'DM'
p284
sS'CAMP'
p285
S'CP'
p286
sS'WELL'
p287
S'WLS'
p288
sS'ALLEY'
p289
S'ALY'
p290
sS'PORT'
p291
S'PRT'
p292
sS'PRAIRIE'
p293
S'PR'
p294
sS'FOREST'
p295
S'FRST'
p296
sS'BLUFF'
p297
S'BLF'
p298
sS'LOCK'
p299
S'LCKS'
p300
sS'FOUR'
p301
I4
sS'CLIFFS'
p302
S'CLFS'
p303
sS'UNION'
p304
S'UN'
p305
sS'LOBBY'
p306
S'LBBY'
p307
sS'FORK'
p308
S'FRK'
p309
sS'RAPIDS'
p310
S'RPDS'
p311
sS'RANCH'
p312
S'RNCH'
p313
sS'BROOK'
p314
S'BRK'
p315
sS'REST'
p316
S'RST'
p317
sS'HOLLOW'
p318
S'HOLW'
p319
sS'SHORES'
p320
S'SHRS'
p321
sS'CANYON'
p322
S'CYN'
p323
sS'NORTHWEST'
p324
S'NW'
p325
sS'KNOLL'
p326
S'KNLS'
p327
sS'MILL'
p328
S'ML'
p329
sS'FORT'
p330
S'FT'
p331
sS'BUILDING'
p332
S'BLDG'
p333
sS'SEVEN'
p334
I7
sS'ANNEX'
p335
S'ANX'
p336
sS'WEST'
p337
S'W'
p338
sS'FIELD'
p339
S'FLD'
p340
sS'GATEWAY'
p341
S'GTWY'
p342
s.