(dp0
S'RAPID'
p1
S'RPDS'
p2
sS'HILLS'
p3
S'HLS'
p4
sS'SIX'
p5
S'6'
p6
sS'FLORIDA'
p7
S'FL'
p8
sS'THREE'
p9
S'3'
p10
sS'STREET'
p11
S'ST'
p12
sS'CRESCENT'
p13
S'CRES'
p14
sS'COURT'
p15
S'CT'
p16
sS'FORKS'
p17
S'FRKS'
p18
sS'ILLINOIS'
p19
S'IL'
p20
sS'BEACH'
p21
S'BCH'
p22
sS'GARDENS'
p23
S'GDNS'
p24
sS'SOUTH'
p25
S'S'
p26
sS'MEADOW'
p27
S'MDWS'
p28
sS'FEDERATED STATES OF MICRONESIA'
p29
S'FM'
p30
sS'GEORGIA'
p31
S'GA'
p32
sS'OFFICE'
p33
S'OFC'
p34
sS'HOLLOW'
p35
S'HOLW'
p36
sS'BOTTOM'
p37
S'BTM'
p38
sS'SOUTHEAST'
p39
S'SE'
p40
sS'CONNECTICUT'
p41
S'CT'
p42
sS'SUMMIT'
p43
S'SMT'
p44
sS'ARMED FORCES EUROPE'
p45
S'AE'
p46
sS'TERRACE'
p47
S'TER'
p48
sS'DEPARTMENT'
p49
S'DEPT'
p50
sS'NINE'
p51
S'9'
p52
sS'VALLEY'
p53
S'VLY'
p54
sS'ROAD'
p55
S'RD'
p56
sS'NEW MEXICO'
p57
S'NM'
p58
sS'APARTMENT'
p59
S'APT'
p60
sS'PALAU'
p61
S'PW'
p62
sS'COLORADO'
p63
S'CO'
p64
sS'FLOOR'
p65
S'FL'
p66
sS'GROVE'
p67
S'GRV'
p68
sS'COVE'
p69
S'CV'
p70
sS'PO BOX'
p71
S'P.O.BOX'
p72
sS'VIRGINIA'
p73
S'VA'
p74
sS'ARIZONA'
p75
S'AZ'
p76
sS'BASEMENT'
p77
S'BSMT'
p78
sS'ISLANDS'
p79
S'ISS'
p80
sS'RIVER'
p81
S'RIV'
p82
sS'MARYLAND'
p83
S'MD'
p84
sS'MINNESOTA'
p85
S'MN'
p86
sS'NORTH DAKOTA'
p87
S'ND'
p88
sS'MASSACHUSETTS'
p89
S'MA'
p90
sS'ALASKA'
p91
S'AK'
p92
sS'HARBOR'
p93
S'HBR'
p94
sS'P.O. Box'
p95
S'P.O.Box'
p96
sS'LAKE'
p97
S'LK'
p98
sS'LANDING'
p99
S'LNDG'
p100
sS'RHODE ISLAND'
p101
S'RI'
p102
sS'TRAIL'
p103
S'TRL'
p104
sS'NEW HAMPSHIRE'
p105
S'NH'
p106
sS'ARMED FORCES PACIFIC'
p107
S'AP'
p108
sS'RADIAL'
p109
S'RADL'
p110
sS'CIRCLE'
p111
S'CIR'
p112
sS'EXPRESSWAY'
p113
S'EXPY'
p114
sS'CLIFF'
p115
S'CLFS'
p116
sS'BURG'
p117
S'BG'
p118
sS'NORTHEAST'
p119
S'NE'
p120
sS'GARDEN'
p121
S'GDNS'
p122
sS'LIGHT'
p123
S'LGT'
p124
sS'P. O. BOX'
p125
g72
sS'FREEWAY'
p126
S'FWY'
p127
sS'SHORE'
p128
S'SHR'
p129
sS'SQUARE'
p130
S'SQ'
p131
sS'CORNER'
p132
S'COR'
p133
sS'AVENUE'
p134
S'AVE'
p135
sS'MEADOWS'
p136
S'MDWS'
p137
sS'INLET'
p138
S'INLT'
p139
sS'MOUNTAIN'
p140
S'MTN'
p141
sS'CENTER'
p142
S'CTR'
p143
sS'FIELDS'
p144
S'FLDS'
p145
sS'RAPIDS'
p146
S'RPDS'
p147
sS'HAWAII'
p148
S'HI'
p149
sS'WELLS'
p150
S'WLS'
p151
sS'FALLS'
p152
S'FLS'
p153
sS'PLAINS'
p154
S'PLNS'
p155
sS'EIGHT'
p156
S'8'
p157
sS'HILL'
p158
S'HL'
p159
sS'BYPASS'
p160
S'BYP'
p161
sS'VILLAGE'
p162
S'VLG'
p163
sS'SPRINGS'
p164
S'SPGS'
p165
sS'ORCHARD'
p166
S'ORCH'
p167
sS'FLAT'
p168
S'FLT'
p169
sS'LOAF'
p170
S'LF'
p171
sS'BOULEVARD'
p172
S'BLVD'
p173
sS'WASHINGTON'
p174
S'WA'
p175
sS'DIVIDE'
p176
S'DV'
p177
sS'CLUB'
p178
S'CLB'
p179
sS'BROOK'
p180
S'BRK'
p181
sS'MICHIGAN'
p182
S'MI'
p183
sS'PLAZA'
p184
S'PLZ'
p185
sS'CORNERS'
p186
S'CORS'
p187
sS'OREGON'
p188
S'OR'
p189
sS'BAYOU'
p190
S'BYU'
p191
sS'PLACE'
p192
S'PL'
p193
sS'LODGE'
p194
S'LDG'
p195
sS'FERRY'
p196
S'FRY'
p197
sS'PO DRAWER'
p198
S'P.O.DRAWER'
p199
sS'P. O. DRAWER'
p200
g199
sS'HIGHWAY'
p201
S'HWY'
p202
sS'GLEN'
p203
S'GLN'
p204
sS'NECK'
p205
S'NCK'
p206
sS'TRACE'
p207
S'TRCE'
p208
sS'COURSE'
p209
S'CRSE'
p210
sS'TRACK'
p211
S'TRAK'
p212
sS'PENNSYLVANIA'
p213
S'PA'
p214
sS'VIADUCT'
p215
S'VIA'
p216
sS'DISTRICT OF COLUMBIA'
p217
S'DC'
p218
sS'MONTANA'
p219
S'MT'
p220
sS'SHOAL'
p221
S'SHL'
p222
sS'WEST VIRGINIA'
p223
S'WV'
p224
sS'CROSSING'
p225
S'XING'
p226
sS'FIVE'
p227
S'5'
p228
sS'VIEW'
p229
S'VW'
p230
sS'HAVEN'
p231
S'HVN'
p232
sS'JUNCTION'
p233
S'JCT'
p234
sS'STREAM'
p235
S'STRM'
p236
sS'SPRING'
p237
S'SPG'
p238
sS'KANSAS'
p239
S'KS'
p240
sS'UTAH'
p241
S'UT'
p242
sS'VERMONT'
p243
S'VT'
p244
sS'NORTH CAROLINA'
p245
S'NC'
p246
sS'LAKES'
p247
S'LKS'
p248
sS'PORT'
p249
S'PRT'
p250
sS'STATION'
p251
S'STA'
p252
sS'SOUTH DAKOTA'
p253
S'SD'
p254
sS'BEND'
p255
S'BND'
p256
sS'COURTS'
p257
S'CTS'
p258
sS'CAPE'
p259
S'CPE'
p260
sS'FORGE'
p261
S'FRG'
p262
sS'SUITE'
p263
S'STE'
p264
sS'STRAVENUE'
p265
S'STRA'
p266
sS'IDAHO'
p267
S'ID'
p268
sS'PENTHOUSE'
p269
S'PH'
p270
sS'LANE'
p271
S'LN'
p272
sS'TEN'
p273
S'10'
p274
sS'POINT'
p275
S'PT'
p276
sS'TUNNEL'
p277
S'TUNL'
p278
sS'DELAWARE'
p279
S'DE'
p280
sS'MISSION'
p281
S'MSN'
p282
sS'CAUSEWAY'
p283
S'CSWY'
p284
sS'TRAILER'
p285
S'TRLR'
p286
sS'FORT'
p287
S'FT'
p288
sS'PUERTO RICO'
p289
S'PR'
p290
sS'SOUTHWEST'
p291
S'SW'
p292
sS'VISTA'
p293
S'VIS'
p294
sS'HANGER'
p295
S'HNGR'
p296
sS'RIDGE'
p297
S'RDG'
p298
sS'P O BOX'
p299
g72
sS'NEW JERSEY'
p300
S'NJ'
p301
sS'LOCK'
p302
S'LCKS'
p303
sS'MOUNT'
p304
S'MT'
p305
sS'MILLS'
p306
S'MLS'
p307
sS'DRIVE'
p308
S'DR'
p309
sS'FRONT'
p310
S'FRNT'
p311
sS'VIRGIN ISLANDS'
p312
S'VI'
p313
sS'FORD'
p314
S'FRD'
p315
sS'P O DRAWER'
p316
g199
sS'NEVADA'
p317
S'NV'
p318
sS'UPPER'
p319
S'UPPR'
p320
sS'IOWA'
p321
S'IA'
p322
sS'EAST'
p323
S'E'
p324
sS'WISCONSIN'
p325
S'WI'
p326
sS'CREEK'
p327
S'CRK'
p328
sS'ISLAND'
p329
S'IS'
p330
sS'OKLAHOMA'
p331
S'OK'
p332
sS'ANNEX'
p333
S'ANX'
p334
sS'TRAFFICWAY'
p335
S'TRFY'
p336
sS'KENTUCKY'
p337
S'KY'
p338
sS'LOCKS'
p339
S'LCKS'
p340
sS'MISSISSIPPI'
p341
S'MS'
p342
sS'NEW YORK'
p343
S'NY'
p344
sS'KEY'
p345
S'KY'
p346
sS'TURNPIKE'
p347
S'TPKE'
p348
sS'CALIFORNIA'
p349
S'CA'
p350
sS'BRANCH'
p351
S'BR'
p352
sS'MAINE'
p353
S'ME'
p354
sS'DALE'
p355
S'DL'
p356
sS'BRIDGE'
p357
S'BRG'
p358
sS'LOWER'
p359
S'LOWR'
p360
sS'WAY'
p361
S'WAY'
p362
sS'EXTENSION'
p363
S'EXT'
p364
sS'GUAM'
p365
S'GU'
p366
sS'MISSOURI'
p367
S'MO'
p368
sS'TWO'
p369
S'2'
p370
sS'GREEN'
p371
S'GRN'
p372
sS'PARKWAY'
p373
S'PKWY'
p374
sS'VILLE'
p375
S'VL'
p376
sS'KNOLLS'
p377
S'KNLS'
p378
sS'NORTH'
p379
S'N'
p380
sS'ESTATE'
p381
S'EST'
p382
sS'ARCADE'
p383
S'ARC'
p384
sS'AMERICAN SOMOA'
p385
S'AS'
p386
sS'DAM'
p387
S'DM'
p388
sS'UNIVERSITY'
p389
S'UNIV'
p390
sS'CAMP'
p391
S'CP'
p392
sS'WELL'
p393
S'WLS'
p394
sS'ALLEY'
p395
S'ALY'
p396
sS'ONE'
p397
S'1'
p398
sS'PRAIRIE'
p399
S'PR'
p400
sS'FOREST'
p401
S'FRST'
p402
sS'BLUFF'
p403
S'BLF'
p404
sS'PLAIN'
p405
S'PLN'
p406
sS'PINES'
p407
S'PNES'
p408
sS'FOUR'
p409
S'4'
p410
sS'CLIFFS'
p411
S'CLFS'
p412
sS'UNION'
p413
S'UN'
p414
sS'LOBBY'
p415
S'LBBY'
p416
sS'FORK'
p417
S'FRK'
p418
sS'SPACE'
p419
S'SPC'
p420
sS'ALABAMA'
p421
S'AL'
p422
sS'RANCH'
p423
S'RNCH'
p424
sS'SHOALS'
p425
S'SHLS'
p426
sS'REST'
p427
S'RST'
p428
sS'HEIGHTS'
p429
S'HTS'
p430
sS'SHORES'
p431
S'SHRS'
p432
sS'CANYON'
p433
S'CYN'
p434
sS'ARMED FORCES AMERICAS'
p435
S'AA'
p436
sS'MARSHALL ISLANDS'
p437
S'MH'
p438
sS'NORTHWEST'
p439
S'NW'
p440
sS'WYOMING'
p441
S'WY'
p442
sS'KNOLL'
p443
S'KNLS'
p444
sS'SOUTH CAROLINA'
p445
S'SC'
p446
sS'INDIANA'
p447
S'IN'
p448
sS'MILL'
p449
S'ML'
p450
sS'LOUISIANA'
p451
S'LA'
p452
sS'ROOM'
p453
S'RM'
p454
sS'BUILDING'
p455
S'BLDG'
p456
sS'SEVEN'
p457
S'7'
p458
sS'MANOR'
p459
S'MNR'
p460
sS'NORTHERN MARIANA ISLANDS'
p461
S'MP'
p462
sS'TENNESSEE'
p463
S'TN'
p464
sS'FIELD'
p465
S'FLD'
p466
sS'WEST'
p467
S'W'
p468
sS'PINE'
p469
S'PNES'
p470
sS'OHIO'
p471
S'OH'
p472
sS'NEBRASKA'
p473
S'NE'
p474
sS'ARKANSAS'
p475
S'AR'
p476
sS'TEXAS'
p477
S'TX'
p478
sS'GATEWAY'
p479
S'GTWY'
p480
s.